; Function Attrs: nounwind uwtable
define internal i32 @mac_cmp(ptr noundef readonly captures(none) %0, ptr noundef readonly captures(none) %1) #0 {
  %3 = load ptr, ptr %0, align 8, !tbaa !60
  %4 = tail call ptr @EVP_MAC_get0_provider(ptr noundef %3) #6
  %5 = tail call ptr @OSSL_PROVIDER_get0_name(ptr noundef %4) #6
  %6 = load ptr, ptr %1, align 8, !tbaa !60
  %7 = tail call ptr @EVP_MAC_get0_provider(ptr noundef %6) #6
  %8 = tail call ptr @OSSL_PROVIDER_get0_name(ptr noundef %7) #6
  %9 = tail call i32 @strcmp(ptr noundef nonnull dereferenceable(1) %5, ptr noundef nonnull dereferenceable(1) %8) #7
  ret i32 %9
}